; Function Attrs: nounwind uwtable
define i32 @BN_GF2m_mod_exp(ptr noundef %0, ptr noundef %1, ptr noundef %2, ptr noundef %3, ptr noundef %4) local_unnamed_addr #0 {
  %6 = tail call i32 @BN_num_bits(ptr noundef %3) #5
  %7 = add nsw i32 %6, 1
  %8 = sext i32 %7 to i64
  %9 = shl nsw i64 %8, 2
  %10 = tail call noalias ptr @CRYPTO_malloc(i64 noundef %9, ptr noundef nonnull @.str, i32 noundef 920) #5
  %11 = icmp eq ptr %10, null
  br i1 %11, label %48, label %12

12:                                               ; preds = %5
  %13 = tail call i32 @BN_is_odd(ptr noundef %3) #5
  %.not.i = icmp eq i32 %13, 0
  br i1 %.not.i, label %BN_GF2m_poly2arr.exit.thread, label %14

14:                                               ; preds = %12
  %15 = getelementptr inbounds nuw i8, ptr %3, i64 8
  %16 = load i32, ptr %15, align 8, !tbaa !3
  %17 = icmp sgt i32 %16, 0
  br i1 %17, label %.lr.ph.i, label %._crit_edge.thread.i

.lr.ph.i:                                         ; preds = %14
  %18 = load ptr, ptr %3, align 8, !tbaa !10
  %19 = zext nneg i32 %16 to i64
  br label %20

20:                                               ; preds = %.loopexit.i, %.lr.ph.i
  %indvars.iv.i = phi i64 [ %19, %.lr.ph.i ], [ %indvars.iv.next.i, %.loopexit.i ]
  %.02637.i = phi i32 [ 0, %.lr.ph.i ], [ %.1.i, %.loopexit.i ]
  %indvars.iv.next.i = add nsw i64 %indvars.iv.i, -1
  %21 = getelementptr inbounds nuw i64, ptr %18, i64 %indvars.iv.next.i
  %22 = load i64, ptr %21, align 8, !tbaa !11
  %.not30.i = icmp eq i64 %22, 0
  br i1 %.not30.i, label %.loopexit.i, label %.preheader.i

.preheader.i:                                     ; preds = %20
  %indvars.iv.next.tr.i = trunc i64 %indvars.iv.next.i to i32
  %23 = shl i32 %indvars.iv.next.tr.i, 6
  br label %24

24:                                               ; preds = %33, %.preheader.i
  %.035.i = phi i64 [ -9223372036854775808, %.preheader.i ], [ %34, %33 ]
  %.234.i = phi i32 [ %.02637.i, %.preheader.i ], [ %.3.i, %33 ]
  %.02732.i = phi i32 [ 63, %.preheader.i ], [ %35, %33 ]
  %25 = and i64 %.035.i, %22
  %.not31.i = icmp eq i64 %25, 0
  br i1 %.not31.i, label %33, label %26

26:                                               ; preds = %24
  %.not23 = icmp sgt i32 %.234.i, %6
  br i1 %.not23, label %31, label %27

27:                                               ; preds = %26
  %28 = add nuw nsw i32 %.02732.i, %23
  %29 = sext i32 %.234.i to i64
  %30 = getelementptr inbounds i32, ptr %10, i64 %29
  store i32 %28, ptr %30, align 4, !tbaa !16
  br label %31

31:                                               ; preds = %27, %26
  %32 = add nsw i32 %.234.i, 1
  br label %33

33:                                               ; preds = %31, %24
  %.3.i = phi i32 [ %32, %31 ], [ %.234.i, %24 ]
  %34 = lshr i64 %.035.i, 1
  %35 = add nsw i32 %.02732.i, -1
  %.not40.i = icmp eq i32 %.02732.i, 0
  br i1 %.not40.i, label %.loopexit.i, label %24, !llvm.loop !21

.loopexit.i:                                      ; preds = %33, %20
  %.1.i = phi i32 [ %.02637.i, %20 ], [ %.3.i, %33 ]
  %36 = icmp sgt i64 %indvars.iv.i, 1
  br i1 %36, label %20, label %._crit_edge.i, !llvm.loop !22

._crit_edge.i:                                    ; preds = %.loopexit.i
  %37 = icmp sgt i32 %.1.i, 0
  br i1 %37, label %38, label %._crit_edge.thread.i

38:                                               ; preds = %._crit_edge.i
  %39 = load i32, ptr %10, align 4, !tbaa !16
  %40 = icmp sgt i32 %39, 661
  br i1 %40, label %BN_GF2m_poly2arr.exit.thread, label %._crit_edge.thread.i

._crit_edge.thread.i:                             ; preds = %38, %._crit_edge.i, %14
  %.026.lcssa42.i = phi i32 [ %.1.i, %38 ], [ %.1.i, %._crit_edge.i ], [ 0, %14 ]
  %.not24 = icmp sgt i32 %.026.lcssa42.i, %6
  br i1 %.not24, label %BN_GF2m_poly2arr.exit.thread25, label %BN_GF2m_poly2arr.exit

BN_GF2m_poly2arr.exit.thread25:                   ; preds = %._crit_edge.thread.i
  %41 = add nsw i32 %.026.lcssa42.i, 1
  br label %BN_GF2m_poly2arr.exit.thread

BN_GF2m_poly2arr.exit:                            ; preds = %._crit_edge.thread.i
  %42 = sext i32 %.026.lcssa42.i to i64
  %43 = getelementptr inbounds i32, ptr %10, i64 %42
  store i32 -1, ptr %43, align 4, !tbaa !16
  %44 = add nsw i32 %.026.lcssa42.i, 1
  %.not = icmp eq i32 %44, 0
  br i1 %.not, label %BN_GF2m_poly2arr.exit.thread, label %45

BN_GF2m_poly2arr.exit.thread:                     ; preds = %BN_GF2m_poly2arr.exit.thread25, %38, %12, %BN_GF2m_poly2arr.exit
  %.029.i22 = phi i32 [ %44, %BN_GF2m_poly2arr.exit ], [ 0, %12 ], [ 0, %38 ], [ %41, %BN_GF2m_poly2arr.exit.thread25 ]
  tail call void @ERR_new() #5
  tail call void @ERR_set_debug(ptr noundef nonnull @.str, i32 noundef 925, ptr noundef nonnull @__func__.BN_GF2m_mod_exp) #5
  tail call void (i32, i32, ptr, ...) @ERR_set_error(i32 noundef 3, i32 noundef 106, ptr noundef null) #5
  br label %47

45:                                               ; preds = %BN_GF2m_poly2arr.exit
  %46 = tail call i32 @BN_GF2m_mod_exp_arr(ptr noundef %0, ptr noundef %1, ptr noundef %2, ptr noundef nonnull %10, ptr noundef %4)
  br label %47

47:                                               ; preds = %45, %BN_GF2m_poly2arr.exit.thread
  %.016 = phi i32 [ %.029.i22, %BN_GF2m_poly2arr.exit.thread ], [ %46, %45 ]
  tail call void @CRYPTO_free(ptr noundef nonnull %10, ptr noundef nonnull @.str, i32 noundef 931) #5
  br label %48

48:                                               ; preds = %5, %47
  %.0 = phi i32 [ %.016, %47 ], [ 0, %5 ]
  ret i32 %.0
}